target datalayout = "e-m:e-p270:32:32-p271:32:32-p272:64:64-i64:64-i128:128-f80:128-n8:16:32:64-S128"
target triple = "x86_64-pc-linux-gnu"

%struct.AVxWorker = type { ptr, i32, ptr, ptr, ptr, ptr, i32 }
%struct.AVxWorkerImpl = type { %union.pthread_mutex_t, %union.pthread_cond_t, i64 }
%union.pthread_mutex_t = type { %struct.__pthread_mutex_s }
%struct.__pthread_mutex_s = type { i32, i32, i32, i32, i32, i16, i16, %struct.__pthread_internal_list }
%struct.__pthread_internal_list = type { ptr, ptr }
%union.pthread_cond_t = type { %struct.__pthread_cond_s }
%struct.__pthread_cond_s = type { %union.__atomic_wide_counter, %union.__atomic_wide_counter, [2 x i32], [2 x i32], i32, i32, [2 x i32] }
%union.__atomic_wide_counter = type { i64 }

; Function Attrs: nounwind uwtable
define internal void @change_state(ptr noundef %0, i32 noundef %1) #0 {
  %3 = alloca ptr, align 8
  %4 = alloca i32, align 4
  store ptr %0, ptr %3, align 8
  store i32 %1, ptr %4, align 4
  %5 = load ptr, ptr %3, align 8
  %6 = getelementptr inbounds nuw %struct.AVxWorker, ptr %5, i32 0, i32 0
  %7 = load ptr, ptr %6, align 8
  %8 = icmp eq ptr %7, null
  br i1 %8, label %9, label %10

9:                                                ; preds = %2
  br label %55

10:                                               ; preds = %2
  %11 = load ptr, ptr %3, align 8
  %12 = getelementptr inbounds nuw %struct.AVxWorker, ptr %11, i32 0, i32 0
  %13 = load ptr, ptr %12, align 8
  %14 = getelementptr inbounds nuw %struct.AVxWorkerImpl, ptr %13, i32 0, i32 0
  %15 = call i32 @pthread_mutex_lock(ptr noundef %14) #6
  %16 = load ptr, ptr %3, align 8
  %17 = getelementptr inbounds nuw %struct.AVxWorker, ptr %16, i32 0, i32 1
  %18 = load i32, ptr %17, align 8
  %19 = icmp uge i32 %18, 1
  br i1 %19, label %20, label %49

20:                                               ; preds = %10
  br label %21

21:                                               ; preds = %26, %20
  %22 = load ptr, ptr %3, align 8
  %23 = getelementptr inbounds nuw %struct.AVxWorker, ptr %22, i32 0, i32 1
  %24 = load i32, ptr %23, align 8
  %25 = icmp ne i32 %24, 1
  br i1 %25, label %26, label %36

26:                                               ; preds = %21
  %27 = load ptr, ptr %3, align 8
  %28 = getelementptr inbounds nuw %struct.AVxWorker, ptr %27, i32 0, i32 0
  %29 = load ptr, ptr %28, align 8
  %30 = getelementptr inbounds nuw %struct.AVxWorkerImpl, ptr %29, i32 0, i32 1
  %31 = load ptr, ptr %3, align 8
  %32 = getelementptr inbounds nuw %struct.AVxWorker, ptr %31, i32 0, i32 0
  %33 = load ptr, ptr %32, align 8
  %34 = getelementptr inbounds nuw %struct.AVxWorkerImpl, ptr %33, i32 0, i32 0
  %35 = call i32 @pthread_cond_wait(ptr noundef %30, ptr noundef %34)
  br label %21, !llvm.loop !7

36:                                               ; preds = %21
  %37 = load i32, ptr %4, align 4
  %38 = icmp ne i32 %37, 1
  br i1 %38, label %39, label %48

39:                                               ; preds = %36
  %40 = load i32, ptr %4, align 4
  %41 = load ptr, ptr %3, align 8
  %42 = getelementptr inbounds nuw %struct.AVxWorker, ptr %41, i32 0, i32 1
  store i32 %40, ptr %42, align 8
  %43 = load ptr, ptr %3, align 8
  %44 = getelementptr inbounds nuw %struct.AVxWorker, ptr %43, i32 0, i32 0
  %45 = load ptr, ptr %44, align 8
  %46 = getelementptr inbounds nuw %struct.AVxWorkerImpl, ptr %45, i32 0, i32 1
  %47 = call i32 @pthread_cond_signal(ptr noundef %46) #6
  br label %48

48:                                               ; preds = %39, %36
  br label %49

49:                                               ; preds = %48, %10
  %50 = load ptr, ptr %3, align 8
  %51 = getelementptr inbounds nuw %struct.AVxWorker, ptr %50, i32 0, i32 0
  %52 = load ptr, ptr %51, align 8
  %53 = getelementptr inbounds nuw %struct.AVxWorkerImpl, ptr %52, i32 0, i32 0
  %54 = call i32 @pthread_mutex_unlock(ptr noundef %53) #6
  br label %55

55:                                               ; preds = %49, %9
  ret void
}

; Function Attrs: nounwind uwtable
define internal void @launch(ptr noundef %0) #0 {
  %2 = alloca ptr, align 8
  store ptr %0, ptr %2, align 8
  %3 = load ptr, ptr %2, align 8
  call void @change_state(ptr noundef %3, i32 noundef 2)
  ret void
}